; Function Attrs: nounwind uwtable
define hidden range(i32 0, 2) i32 @uv__iou_fs_read_or_write(ptr noundef %0, ptr noundef %1, i32 noundef %2) local_unnamed_addr #0 {
  %4 = getelementptr inbounds nuw i8, ptr %1, i64 292
  %5 = load i32, ptr %4, align 4
  %6 = icmp ugt i32 %5, 1024
  br i1 %6, label %7, label %9

7:                                                ; preds = %3
  %.not = icmp eq i32 %2, 0
  br i1 %.not, label %uv__iou_submit.exit, label %8

8:                                                ; preds = %7
  store i32 1024, ptr %4, align 4
  br label %9

9:                                                ; preds = %8, %3
  %10 = getelementptr inbounds nuw i8, ptr %0, i64 40
  %11 = load ptr, ptr %10, align 8
  %12 = getelementptr inbounds nuw i8, ptr %11, i64 320
  %13 = tail call fastcc ptr @uv__iou_get_sqe(ptr noundef nonnull %12, ptr noundef %0, ptr noundef nonnull %1)
  %14 = icmp eq ptr %13, null
  br i1 %14, label %uv__iou_submit.exit, label %15

15:                                               ; preds = %9
  %16 = getelementptr inbounds nuw i8, ptr %1, i64 296
  %17 = load ptr, ptr %16, align 8
  %18 = ptrtoint ptr %17 to i64
  %19 = getelementptr inbounds nuw i8, ptr %13, i64 16
  store i64 %18, ptr %19, align 8
  %20 = getelementptr inbounds nuw i8, ptr %1, i64 280
  %21 = load i32, ptr %20, align 8
  %22 = getelementptr inbounds nuw i8, ptr %13, i64 4
  store i32 %21, ptr %22, align 4
  %23 = load i32, ptr %4, align 4
  %24 = getelementptr inbounds nuw i8, ptr %13, i64 24
  store i32 %23, ptr %24, align 8
  %25 = getelementptr inbounds nuw i8, ptr %1, i64 304
  %26 = load i64, ptr %25, align 8
  %spec.select = tail call i64 @llvm.smax.i64(i64 %26, i64 -1)
  %27 = getelementptr inbounds nuw i8, ptr %13, i64 8
  store i64 %spec.select, ptr %27, align 8
  %.not22 = icmp eq i32 %2, 0
  %28 = select i1 %.not22, i8 2, i8 1
  store i8 %28, ptr %13, align 8
  %29 = getelementptr inbounds nuw i8, ptr %11, i64 328
  %30 = load ptr, ptr %29, align 8
  %31 = load i32, ptr %30, align 4
  %32 = add i32 %31, 1
  store atomic i32 %32, ptr %30 release, align 4
  %33 = getelementptr inbounds nuw i8, ptr %11, i64 344
  %34 = load ptr, ptr %33, align 8
  %35 = load atomic i32, ptr %34 acquire, align 4
  %36 = and i32 %35, 1
  %.not.i = icmp eq i32 %36, 0
  br i1 %.not.i, label %uv__iou_submit.exit, label %37

37:                                               ; preds = %15
  %38 = getelementptr inbounds nuw i8, ptr %11, i64 432
  %39 = load i32, ptr %38, align 8
  %40 = tail call i64 (i64, ...) @syscall(i64 noundef 426, i32 noundef %39, i32 noundef 0, i32 noundef 0, i32 noundef 2, ptr noundef null, i64 noundef 0) #17
  %41 = and i64 %40, 4294967295
  %.not6.i = icmp eq i64 %41, 0
  br i1 %.not6.i, label %uv__iou_submit.exit, label %42

42:                                               ; preds = %37
  %43 = tail call ptr @__errno_location() #19
  %44 = load i32, ptr %43, align 4
  %.not7.i = icmp eq i32 %44, 130
  br i1 %.not7.i, label %uv__iou_submit.exit, label %45

45:                                               ; preds = %42
  tail call void @perror(ptr noundef nonnull @.str.25) #21
  br label %uv__iou_submit.exit

uv__iou_submit.exit:                              ; preds = %45, %42, %37, %15, %9, %7
  %.0 = phi i32 [ 0, %7 ], [ 0, %9 ], [ 1, %15 ], [ 1, %37 ], [ 1, %42 ], [ 1, %45 ]
  ret i32 %.0
}